; Function Attrs: nounwind sspstrong uwtable
define internal void @backup_job_completed(ptr noundef %opaque, i32 %ret) #0 {
entry:
  %opaque1 = getelementptr inbounds nuw i8, ptr %opaque, i64 24
  %0 = load ptr, ptr %opaque1, align 8
  %stage = getelementptr inbounds nuw i8, ptr %0, i64 4
  %1 = load i32, ptr %stage, align 4
  %cmp.not = icmp eq i32 %1, 2
  br i1 %cmp.not, label %if.end, label %if.then

if.then:                                          ; preds = %entry
  %error = getelementptr inbounds nuw i8, ptr %0, i64 68
  store i32 -5, ptr %error, align 4
  %.pre = load ptr, ptr %opaque1, align 8
  br label %if.end

if.end:                                           ; preds = %if.then, %entry
  %2 = phi ptr [ %.pre, %if.then ], [ %0, %entry ]
  %backup_job.i = getelementptr inbounds nuw i8, ptr %2, i64 32
  store ptr null, ptr %backup_job.i, align 8
  %top_id.i = getelementptr inbounds nuw i8, ptr %2, i64 40
  %3 = load ptr, ptr %top_id.i, align 8
  %call.i = tail call ptr @bdrv_lookup_bs(ptr noundef %3, ptr noundef %3, ptr noundef null) #8
  %tobool.not.i = icmp eq ptr %call.i, null
  br i1 %tobool.not.i, label %backup_job_cleanup.exit, label %if.end.i

if.end.i:                                         ; preds = %if.end
  %blocker.i = getelementptr inbounds nuw i8, ptr %2, i64 56
  %4 = load ptr, ptr %blocker.i, align 8
  tail call void @bdrv_op_unblock_all(ptr noundef nonnull %call.i, ptr noundef %4) #8
  %5 = load ptr, ptr %blocker.i, align 8
  tail call void @error_free(ptr noundef %5) #8
  tail call fastcc void @reopen_backing_file(ptr noundef nonnull %opaque, i1 noundef zeroext false, ptr noundef null)
  br label %backup_job_cleanup.exit

backup_job_cleanup.exit:                          ; preds = %if.end, %if.end.i
  ret void
}